; ModuleID = 'bench/linux/original/generic_mpih-lshift.ll'
source_filename = "bench/linux/original/generic_mpih-lshift.ll"
target datalayout = "e-m:e-p270:32:32-p271:32:32-p272:64:64-i64:64-i128:128-f80:128-n8:16:32:64-S128"
target triple = "x86_64-unknown-linux-gnu"

; Function Attrs: fn_ret_thunk_extern nofree norecurse nosync nounwind null_pointer_is_valid memory(argmem: readwrite)
define dso_local i64 @mpihelp_lshift(ptr nocapture noundef writeonly %0, ptr nocapture noundef readonly %1, i32 noundef %2, i32 noundef %3) local_unnamed_addr #0 align 16 {
  %5 = getelementptr i8, ptr %0, i64 8
  %6 = sub i32 64, %3
  %7 = add i32 %2, -1
  %8 = sext i32 %7 to i64
  %9 = getelementptr i64, ptr %1, i64 %8
  %10 = load i64, ptr %9, align 8
  %11 = zext i32 %6 to i64
  %12 = add i32 %2, -2
  %13 = icmp sgt i32 %12, -1
  %14 = zext nneg i32 %3 to i64
  br i1 %13, label %16, label %..loopexit_crit_edge

..loopexit_crit_edge:                             ; preds = %4
  %15 = sext i32 %12 to i64
  br label %.loopexit

16:                                               ; preds = %4
  %17 = zext nneg i32 %12 to i64
  br label %18

18:                                               ; preds = %18, %16
  %19 = phi i64 [ %17, %16 ], [ %27, %18 ]
  %20 = phi i64 [ %10, %16 ], [ %22, %18 ]
  %21 = getelementptr i64, ptr %1, i64 %19
  %22 = load i64, ptr %21, align 8
  %23 = shl i64 %20, %14
  %24 = lshr i64 %22, %11
  %25 = or i64 %24, %23
  %26 = getelementptr i64, ptr %5, i64 %19
  store i64 %25, ptr %26, align 8
  %27 = add nsw i64 %19, -1
  %.not = icmp eq i64 %19, 0
  br i1 %.not, label %.loopexit, label %18, !llvm.loop !5

.loopexit:                                        ; preds = %18, %..loopexit_crit_edge
  %28 = phi i64 [ %10, %..loopexit_crit_edge ], [ %22, %18 ]
  %29 = phi i64 [ %15, %..loopexit_crit_edge ], [ -1, %18 ]
  %30 = lshr i64 %10, %11
  %31 = shl i64 %28, %14
  %32 = getelementptr i64, ptr %5, i64 %29
  store i64 %31, ptr %32, align 8
  ret i64 %30
}


!llvm.module.flags = !{!0, !1, !2, !3, !4}

!0 = !{i32 1, !"wchar_size", i32 2}
!1 = !{i32 8, !"cf-protection-branch", i32 1}
!2 = !{i32 4, !"function_return_thunk_extern", i32 1}
!3 = !{i32 4, !"indirect_branch_cs_prefix", i32 1}
!4 = !{i32 4, !"SkipRaxSetup", i32 1}
!5 = distinct !{!5, !6, !7}
!6 = !{!"llvm.loop.mustprogress"}
!7 = !{!"llvm.loop.unroll.disable"}
